target datalayout = "e-m:e-p270:32:32-p271:32:32-p272:64:64-i64:64-i128:128-f80:128-n8:16:32:64-S128"
target triple = "x86_64-pc-linux-gnu"

%"class.grpc_core::Duration" = type { i64 }
%"struct.(anonymous namespace)::backup_poller" = type { %struct.grpc_timer, %struct.grpc_closure, %struct.grpc_closure, ptr, ptr, i8, %struct.gpr_refcount, %struct.gpr_refcount }
%struct.grpc_timer = type { i64, i32, i8, ptr, ptr, ptr, %union.anon.4 }
%union.anon.4 = type { %"struct.grpc_event_engine::experimental::EventEngine::TaskHandle" }
%"struct.grpc_event_engine::experimental::EventEngine::TaskHandle" = type { [2 x i64] }
%struct.grpc_closure = type { %union.anon.5, ptr, ptr, %union.anon.6 }
%union.anon.5 = type { ptr }
%union.anon.6 = type { i64 }
%struct.gpr_refcount = type { i64 }

@_ZL25g_backup_polling_disabled = internal global i8 0, align 1
@_ZL11g_poller_mu = internal global i64 0, align 8
@_ZL15g_poll_interval = internal global %"class.grpc_core::Duration" { i64 5000 }, align 8
@_ZL8g_poller = internal global ptr null, align 8

; Function Attrs: mustprogress uwtable
define internal void @_ZL28backup_poller_shutdown_unrefPN12_GLOBAL__N_113backup_pollerE(ptr noundef %0) #4 {
  %2 = alloca ptr, align 8
  store ptr %0, ptr %2, align 8, !tbaa !38
  %3 = load ptr, ptr %2, align 8, !tbaa !38
  %4 = getelementptr inbounds nuw %"struct.(anonymous namespace)::backup_poller", ptr %3, i32 0, i32 7
  %5 = call i32 @gpr_unref(ptr noundef %4)
  %6 = icmp ne i32 %5, 0
  br i1 %6, label %7, label %15

7:                                                ; preds = %1
  %8 = load ptr, ptr %2, align 8, !tbaa !38
  %9 = getelementptr inbounds nuw %"struct.(anonymous namespace)::backup_poller", ptr %8, i32 0, i32 4
  %10 = load ptr, ptr %9, align 8, !tbaa !40
  call void @_Z20grpc_pollset_destroyP12grpc_pollset(ptr noundef %10)
  %11 = load ptr, ptr %2, align 8, !tbaa !38
  %12 = getelementptr inbounds nuw %"struct.(anonymous namespace)::backup_poller", ptr %11, i32 0, i32 4
  %13 = load ptr, ptr %12, align 8, !tbaa !40
  call void @gpr_free(ptr noundef %13)
  %14 = load ptr, ptr %2, align 8, !tbaa !38
  call void @gpr_free(ptr noundef %14)
  br label %15

15:                                               ; preds = %7, %1
  ret void
}

; Function Attrs: inlinehint mustprogress nounwind uwtable
define linkonce_odr noundef ptr @_Z17grpc_closure_initP12grpc_closurePFvPvN4absl12lts_202407226StatusEES1_(ptr noundef %0, ptr noundef %1, ptr noundef %2) #14 comdat {
  %4 = alloca ptr, align 8
  %5 = alloca ptr, align 8
  %6 = alloca ptr, align 8
  store ptr %0, ptr %4, align 8, !tbaa !62
  store ptr %1, ptr %5, align 8, !tbaa !63
  store ptr %2, ptr %6, align 8, !tbaa !63
  %7 = load ptr, ptr %5, align 8, !tbaa !63
  %8 = load ptr, ptr %4, align 8, !tbaa !62
  %9 = getelementptr inbounds nuw %struct.grpc_closure, ptr %8, i32 0, i32 1
  store ptr %7, ptr %9, align 8, !tbaa !64
  %10 = load ptr, ptr %6, align 8, !tbaa !63
  %11 = load ptr, ptr %4, align 8, !tbaa !62
  %12 = getelementptr inbounds nuw %struct.grpc_closure, ptr %11, i32 0, i32 2
  store ptr %10, ptr %12, align 8, !tbaa !65
  %13 = load ptr, ptr %4, align 8, !tbaa !62
  %14 = getelementptr inbounds nuw %struct.grpc_closure, ptr %13, i32 0, i32 3
  store i64 0, ptr %14, align 8, !tbaa !66
  %15 = load ptr, ptr %4, align 8, !tbaa !62
  ret ptr %15
}

; Function Attrs: mustprogress nounwind uwtable
define linkonce_odr void @_ZN9grpc_core8DurationC2El(ptr noundef nonnull align 8 dereferenceable(8) %0, i64 noundef %1) unnamed_addr #7 comdat align 2 {
  %3 = alloca ptr, align 8
  %4 = alloca i64, align 8
  store ptr %0, ptr %3, align 8, !tbaa !32
  store i64 %1, ptr %4, align 8, !tbaa !12
  %5 = load ptr, ptr %3, align 8
  %6 = getelementptr inbounds nuw %"class.grpc_core::Duration", ptr %5, i32 0, i32 0
  %7 = load i64, ptr %4, align 8, !tbaa !12
  store i64 %7, ptr %6, align 8, !tbaa !34
  ret void
}

; Function Attrs: mustprogress uwtable
define internal void @_ZL14g_poller_unrefv() #4 {
  %1 = alloca ptr, align 8
  call void @gpr_mu_lock(ptr noundef @_ZL11g_poller_mu)
  %2 = load ptr, ptr @_ZL8g_poller, align 8, !tbaa !38
  %3 = getelementptr inbounds nuw %"struct.(anonymous namespace)::backup_poller", ptr %2, i32 0, i32 6
  %4 = call i32 @gpr_unref(ptr noundef %3)
  %5 = icmp ne i32 %4, 0
  br i1 %5, label %6, label %26

6:                                                ; preds = %0
  call void @llvm.lifetime.start.p0(i64 8, ptr %1) #3
  %7 = load ptr, ptr @_ZL8g_poller, align 8, !tbaa !38
  store ptr %7, ptr %1, align 8, !tbaa !38
  store ptr null, ptr @_ZL8g_poller, align 8, !tbaa !38
  call void @gpr_mu_unlock(ptr noundef @_ZL11g_poller_mu)
  %8 = load ptr, ptr %1, align 8, !tbaa !38
  %9 = getelementptr inbounds nuw %"struct.(anonymous namespace)::backup_poller", ptr %8, i32 0, i32 3
  %10 = load ptr, ptr %9, align 8, !tbaa !51
  call void @gpr_mu_lock(ptr noundef %10)
  %11 = load ptr, ptr %1, align 8, !tbaa !38
  %12 = getelementptr inbounds nuw %"struct.(anonymous namespace)::backup_poller", ptr %11, i32 0, i32 5
  store i8 1, ptr %12, align 8, !tbaa !50
  %13 = load ptr, ptr %1, align 8, !tbaa !38
  %14 = getelementptr inbounds nuw %"struct.(anonymous namespace)::backup_poller", ptr %13, i32 0, i32 4
  %15 = load ptr, ptr %14, align 8, !tbaa !40
  %16 = load ptr, ptr %1, align 8, !tbaa !38
  %17 = getelementptr inbounds nuw %"struct.(anonymous namespace)::backup_poller", ptr %16, i32 0, i32 2
  %18 = load ptr, ptr %1, align 8, !tbaa !38
  %19 = call noundef ptr @_Z17grpc_closure_initP12grpc_closurePFvPvN4absl12lts_202407226StatusEES1_(ptr noundef %17, ptr noundef @_ZL11done_pollerPvN4absl12lts_202407226StatusE, ptr noundef %18)
  call void @_Z21grpc_pollset_shutdownP12grpc_pollsetP12grpc_closure(ptr noundef %15, ptr noundef %19)
  %20 = load ptr, ptr %1, align 8, !tbaa !38
  %21 = getelementptr inbounds nuw %"struct.(anonymous namespace)::backup_poller", ptr %20, i32 0, i32 3
  %22 = load ptr, ptr %21, align 8, !tbaa !51
  call void @gpr_mu_unlock(ptr noundef %22)
  %23 = load ptr, ptr %1, align 8, !tbaa !38
  %24 = getelementptr inbounds nuw %"struct.(anonymous namespace)::backup_poller", ptr %23, i32 0, i32 0
  call void @_Z17grpc_timer_cancelP10grpc_timer(ptr noundef %24)
  %25 = load ptr, ptr %1, align 8, !tbaa !38
  call void @_ZL28backup_poller_shutdown_unrefPN12_GLOBAL__N_113backup_pollerE(ptr noundef %25)
  call void @llvm.lifetime.end.p0(i64 8, ptr %1) #3
  br label %27

26:                                               ; preds = %0
  call void @gpr_mu_unlock(ptr noundef @_ZL11g_poller_mu)
  br label %27

27:                                               ; preds = %26, %6
  ret void
}

; Function Attrs: mustprogress nounwind uwtable
define linkonce_odr noundef zeroext i1 @_ZNK9grpc_core8DurationeqES0_(ptr noundef nonnull align 8 dereferenceable(8) %0, i64 %1) #7 comdat align 2 {
  %3 = alloca %"class.grpc_core::Duration", align 8
  %4 = alloca ptr, align 8
  %5 = getelementptr inbounds nuw %"class.grpc_core::Duration", ptr %3, i32 0, i32 0
  store i64 %1, ptr %5, align 8
  store ptr %0, ptr %4, align 8, !tbaa !32
  %6 = load ptr, ptr %4, align 8
  %7 = getelementptr inbounds nuw %"class.grpc_core::Duration", ptr %6, i32 0, i32 0
  %8 = load i64, ptr %7, align 8, !tbaa !34
  %9 = getelementptr inbounds nuw %"class.grpc_core::Duration", ptr %3, i32 0, i32 0
  %10 = load i64, ptr %9, align 8, !tbaa !34
  %11 = icmp eq i64 %8, %10
  ret i1 %11
}

; Function Attrs: mustprogress uwtable
define linkonce_odr i64 @_ZN9grpc_core8Duration4ZeroEv() #4 comdat align 2 {
  %1 = alloca %"class.grpc_core::Duration", align 8
  call void @_ZN9grpc_core8DurationC2El(ptr noundef nonnull align 8 dereferenceable(8) %1, i64 noundef 0)
  %2 = getelementptr inbounds nuw %"class.grpc_core::Duration", ptr %1, i32 0, i32 0
  %3 = load i64, ptr %2, align 8
  ret i64 %3
}

; Function Attrs: mustprogress uwtable
define void @_Z39grpc_client_channel_stop_backup_pollingP16grpc_pollset_set(ptr noundef %0) #4 {
  %2 = alloca ptr, align 8
  %3 = alloca %"class.grpc_core::Duration", align 8
  store ptr %0, ptr %2, align 8, !tbaa !36
  %4 = load i8, ptr @_ZL25g_backup_polling_disabled, align 1, !tbaa !3, !range !7, !noundef !8
  %5 = trunc i8 %4 to i1
  br i1 %5, label %14, label %6

6:                                                ; preds = %1
  %7 = call i64 @_ZN9grpc_core8Duration4ZeroEv()
  %8 = getelementptr inbounds nuw %"class.grpc_core::Duration", ptr %3, i32 0, i32 0
  store i64 %7, ptr %8, align 8
  %9 = getelementptr inbounds nuw %"class.grpc_core::Duration", ptr %3, i32 0, i32 0
  %10 = load i64, ptr %9, align 8
  %11 = call noundef zeroext i1 @_ZNK9grpc_core8DurationeqES0_(ptr noundef nonnull align 8 dereferenceable(8) @_ZL15g_poll_interval, i64 %10)
  br i1 %11, label %14, label %12

12:                                               ; preds = %6
  %13 = call noundef zeroext i1 @_Z28grpc_iomgr_run_in_backgroundv()
  br i1 %13, label %14, label %15

14:                                               ; preds = %12, %6, %1
  br label %20

15:                                               ; preds = %12
  %16 = load ptr, ptr %2, align 8, !tbaa !36
  %17 = load ptr, ptr @_ZL8g_poller, align 8, !tbaa !38
  %18 = getelementptr inbounds nuw %"struct.(anonymous namespace)::backup_poller", ptr %17, i32 0, i32 4
  %19 = load ptr, ptr %18, align 8, !tbaa !40
  call void @_Z28grpc_pollset_set_del_pollsetP16grpc_pollset_setP12grpc_pollset(ptr noundef %16, ptr noundef %19)
  call void @_ZL14g_poller_unrefv()
  br label %20

20:                                               ; preds = %15, %14
  ret void
}