; Function Attrs: mustprogress uwtable
define void @_Z39grpc_client_channel_stop_backup_pollingP16grpc_pollset_set(ptr noundef %0) local_unnamed_addr #3 {
  %2 = load i8, ptr @_ZL25g_backup_polling_disabled, align 1, !tbaa !3, !range !24, !noundef !25
  %3 = trunc nuw i8 %2 to i1
  %4 = load i64, ptr @_ZL15g_poll_interval.0, align 8
  %5 = icmp eq i64 %4, 0
  %or.cond = select i1 %3, i1 true, i1 %5
  br i1 %or.cond, label %_ZL14g_poller_unrefv.exit, label %6

6:                                                ; preds = %1
  %7 = tail call noundef zeroext i1 @_Z28grpc_iomgr_run_in_backgroundv()
  br i1 %7, label %_ZL14g_poller_unrefv.exit, label %8

8:                                                ; preds = %6
  %9 = load ptr, ptr @_ZL8g_poller, align 8, !tbaa !26
  %10 = getelementptr inbounds nuw i8, ptr %9, i64 128
  %11 = load ptr, ptr %10, align 8, !tbaa !28
  tail call void @_Z28grpc_pollset_set_del_pollsetP16grpc_pollset_setP12grpc_pollset(ptr noundef %0, ptr noundef %11)
  tail call void @gpr_mu_lock(ptr noundef nonnull @_ZL11g_poller_mu)
  %12 = load ptr, ptr @_ZL8g_poller, align 8, !tbaa !26
  %13 = getelementptr inbounds nuw i8, ptr %12, i64 144
  %14 = tail call i32 @gpr_unref(ptr noundef nonnull %13)
  %.not.i = icmp eq i32 %14, 0
  br i1 %.not.i, label %32, label %15

15:                                               ; preds = %8
  %16 = load ptr, ptr @_ZL8g_poller, align 8, !tbaa !26
  store ptr null, ptr @_ZL8g_poller, align 8, !tbaa !26
  tail call void @gpr_mu_unlock(ptr noundef nonnull @_ZL11g_poller_mu)
  %17 = getelementptr inbounds nuw i8, ptr %16, i64 120
  %18 = load ptr, ptr %17, align 8, !tbaa !45
  tail call void @gpr_mu_lock(ptr noundef %18)
  %19 = getelementptr inbounds nuw i8, ptr %16, i64 136
  store i8 1, ptr %19, align 8, !tbaa !37
  %20 = getelementptr inbounds nuw i8, ptr %16, i64 128
  %21 = load ptr, ptr %20, align 8, !tbaa !28
  %22 = getelementptr inbounds nuw i8, ptr %16, i64 88
  %23 = getelementptr inbounds nuw i8, ptr %16, i64 96
  store ptr @_ZL11done_pollerPvN4absl12lts_202407226StatusE, ptr %23, align 8, !tbaa !38
  %24 = getelementptr inbounds nuw i8, ptr %16, i64 104
  store ptr %16, ptr %24, align 8, !tbaa !39
  %25 = getelementptr inbounds nuw i8, ptr %16, i64 112
  store i64 0, ptr %25, align 8, !tbaa !40
  tail call void @_Z21grpc_pollset_shutdownP12grpc_pollsetP12grpc_closure(ptr noundef %21, ptr noundef nonnull %22)
  %26 = load ptr, ptr %17, align 8, !tbaa !45
  tail call void @gpr_mu_unlock(ptr noundef %26)
  tail call void @_Z17grpc_timer_cancelP10grpc_timer(ptr noundef %16)
  %27 = getelementptr inbounds nuw i8, ptr %16, i64 152
  %28 = tail call i32 @gpr_unref(ptr noundef nonnull %27)
  %.not.i.i = icmp eq i32 %28, 0
  br i1 %.not.i.i, label %_ZL14g_poller_unrefv.exit, label %29

29:                                               ; preds = %15
  %30 = load ptr, ptr %20, align 8, !tbaa !28
  tail call void @_Z20grpc_pollset_destroyP12grpc_pollset(ptr noundef %30)
  %31 = load ptr, ptr %20, align 8, !tbaa !28
  tail call void @gpr_free(ptr noundef %31)
  tail call void @gpr_free(ptr noundef nonnull %16)
  br label %_ZL14g_poller_unrefv.exit

32:                                               ; preds = %8
  tail call void @gpr_mu_unlock(ptr noundef nonnull @_ZL11g_poller_mu)
  br label %_ZL14g_poller_unrefv.exit

_ZL14g_poller_unrefv.exit:                        ; preds = %32, %29, %15, %1, %6
  ret void
}